; Function Attrs: nounwind uwtable
define noundef i32 @avformat_flush(ptr noundef %0) local_unnamed_addr #5 {
  tail call void @ff_flush_packet_queue(ptr noundef %0) #17
  %2 = getelementptr inbounds nuw i8, ptr %0, i64 44
  %3 = load i32, ptr %2, align 4, !tbaa !4
  %.not25.i = icmp eq i32 %3, 0
  br i1 %.not25.i, label %ff_read_frame_flush.exit, label %.lr.ph.i

.lr.ph.i:                                         ; preds = %1
  %4 = getelementptr inbounds nuw i8, ptr %0, i64 48
  %5 = getelementptr inbounds nuw i8, ptr %0, i64 268
  br label %6

6:                                                ; preds = %23, %.lr.ph.i
  %indvars.iv27.i = phi i64 [ 0, %.lr.ph.i ], [ %indvars.iv.next28.i, %23 ]
  %7 = load ptr, ptr %4, align 8, !tbaa !24
  %8 = getelementptr inbounds nuw ptr, ptr %7, i64 %indvars.iv27.i
  %9 = load ptr, ptr %8, align 8, !tbaa !33
  %10 = getelementptr inbounds nuw i8, ptr %9, i64 816
  %11 = load ptr, ptr %10, align 8, !tbaa !80
  %.not.i = icmp eq ptr %11, null
  br i1 %.not.i, label %13, label %12

12:                                               ; preds = %6
  tail call void @av_parser_close(ptr noundef nonnull %11) #17
  store ptr null, ptr %10, align 8, !tbaa !80
  br label %13

13:                                               ; preds = %12, %6
  %14 = getelementptr inbounds nuw i8, ptr %9, i64 792
  store i64 -9223372036854775808, ptr %14, align 8, !tbaa !81
  %15 = getelementptr inbounds nuw i8, ptr %9, i64 728
  store i64 -9223372036854775808, ptr %15, align 8, !tbaa !82
  %16 = getelementptr inbounds nuw i8, ptr %9, i64 832
  %17 = load i64, ptr %16, align 8, !tbaa !83
  %18 = icmp eq i64 %17, -9223372036854775808
  %spec.select.i = select i1 %18, i64 9223090561878065151, i64 -9223372036854775808
  %19 = getelementptr inbounds nuw i8, ptr %9, i64 840
  store i64 %spec.select.i, ptr %19, align 8, !tbaa !35
  %20 = load i32, ptr %5, align 4, !tbaa !84
  %21 = getelementptr inbounds nuw i8, ptr %9, i64 804
  store i32 %20, ptr %21, align 4, !tbaa !85
  %22 = getelementptr inbounds nuw i8, ptr %9, i64 592
  br label %28

23:                                               ; preds = %28
  %24 = getelementptr inbounds nuw i8, ptr %9, i64 360
  store i32 0, ptr %24, align 8, !tbaa !86
  %indvars.iv.next28.i = add nuw nsw i64 %indvars.iv27.i, 1
  %25 = load i32, ptr %2, align 4, !tbaa !4
  %26 = zext i32 %25 to i64
  %27 = icmp samesign ult i64 %indvars.iv.next28.i, %26
  br i1 %27, label %6, label %ff_read_frame_flush.exit, !llvm.loop !87

28:                                               ; preds = %28, %13
  %indvars.iv.i = phi i64 [ 0, %13 ], [ %indvars.iv.next.i, %28 ]
  %29 = getelementptr inbounds nuw [17 x i64], ptr %22, i64 0, i64 %indvars.iv.i
  store i64 -9223372036854775808, ptr %29, align 8, !tbaa !54
  %indvars.iv.next.i = add nuw nsw i64 %indvars.iv.i, 1
  %exitcond.not.i = icmp eq i64 %indvars.iv.next.i, 17
  br i1 %exitcond.not.i, label %23, label %28, !llvm.loop !88

ff_read_frame_flush.exit:                         ; preds = %23, %1
  ret i32 0
}